target datalayout = "e-m:e-p270:32:32-p271:32:32-p272:64:64-i64:64-i128:128-f80:128-n8:16:32:64-S128"
target triple = "x86_64-unknown-linux-gnu"

%"struct.std::array" = type { [64 x i8] }
%"class.folly::Range" = type { ptr, ptr }

@_ZN8facebook5velox8encodingL14kBase64CharsetE = internal constant %"struct.std::array" { [64 x i8] c"ABCDEFGHIJKLMNOPQRSTUVWXYZabcdefghijklmnopqrstuvwxyz0123456789+/" }, align 1

; Function Attrs: mustprogress nounwind uwtable
define linkonce_odr noundef nonnull align 1 dereferenceable(1) ptr @_ZNSt14__array_traitsIcLm64EE6_S_refERA64_Kcm(ptr noundef nonnull align 1 dereferenceable(64) %__t, i64 noundef %__n) #0 comdat align 2 {
entry:
  %__t.addr = alloca ptr, align 8
  %__n.addr = alloca i64, align 8
  store ptr %__t, ptr %__t.addr, align 8
  store i64 %__n, ptr %__n.addr, align 8
  %0 = load ptr, ptr %__t.addr, align 8
  %1 = load i64, ptr %__n.addr, align 8
  %arrayidx = getelementptr inbounds [64 x i8], ptr %0, i64 0, i64 %1
  ret ptr %arrayidx
}

; Function Attrs: mustprogress nounwind uwtable
define linkonce_odr noundef nonnull align 1 dereferenceable(1) ptr @_ZNKSt5arrayIcLm64EEixEm(ptr noundef nonnull align 1 dereferenceable(64) %this, i64 noundef %__n) #0 comdat align 2 {
entry:
  %this.addr = alloca ptr, align 8
  %__n.addr = alloca i64, align 8
  store ptr %this, ptr %this.addr, align 8
  store i64 %__n, ptr %__n.addr, align 8
  %this1 = load ptr, ptr %this.addr, align 8
  %_M_elems = getelementptr inbounds %"struct.std::array", ptr %this1, i32 0, i32 0
  %0 = load i64, ptr %__n.addr, align 8
  %call = call noundef nonnull align 1 dereferenceable(1) ptr @_ZNSt14__array_traitsIcLm64EE6_S_refERA64_Kcm(ptr noundef nonnull align 1 dereferenceable(64) %_M_elems, i64 noundef %0) #8
  ret ptr %call
}

; Function Attrs: mustprogress nounwind uwtable
define linkonce_odr noundef ptr @_ZNK5folly5RangeIPKcE5beginEv(ptr noundef nonnull align 8 dereferenceable(16) %this) #0 comdat align 2 {
entry:
  %this.addr = alloca ptr, align 8
  store ptr %this, ptr %this.addr, align 8
  %this1 = load ptr, ptr %this.addr, align 8
  %b_ = getelementptr inbounds %"class.folly::Range", ptr %this1, i32 0, i32 0
  %0 = load ptr, ptr %b_, align 8
  ret ptr %0
}

; Function Attrs: mustprogress nounwind uwtable
define linkonce_odr noundef i64 @_ZNK5folly5RangeIPKcE4sizeEv(ptr noundef nonnull align 8 dereferenceable(16) %this) #0 comdat align 2 {
entry:
  %this.addr = alloca ptr, align 8
  store ptr %this, ptr %this.addr, align 8
  %this1 = load ptr, ptr %this.addr, align 8
  %e_ = getelementptr inbounds %"class.folly::Range", ptr %this1, i32 0, i32 1
  %0 = load ptr, ptr %e_, align 8
  %b_ = getelementptr inbounds %"class.folly::Range", ptr %this1, i32 0, i32 0
  %1 = load ptr, ptr %b_, align 8
  %sub.ptr.lhs.cast = ptrtoint ptr %0 to i64
  %sub.ptr.rhs.cast = ptrtoint ptr %1 to i64
  %sub.ptr.sub = sub i64 %sub.ptr.lhs.cast, %sub.ptr.rhs.cast
  ret i64 %sub.ptr.sub
}

; Function Attrs: mustprogress uwtable
define linkonce_odr void @_ZN8facebook5velox8encoding6Base6410encodeImplIN5folly5RangeIPKcEEEEvRKT_RKSt5arrayIcLm64EEbPc(ptr noundef nonnull align 8 dereferenceable(16) %data, ptr noundef nonnull align 1 dereferenceable(64) %charset, i1 noundef zeroext %include_pad, ptr noundef %out) #1 comdat align 2 {
entry:
  %data.addr = alloca ptr, align 8
  %charset.addr = alloca ptr, align 8
  %include_pad.addr = alloca i8, align 1
  %out.addr = alloca ptr, align 8
  %len = alloca i64, align 8
  %wp = alloca ptr, align 8
  %it = alloca ptr, align 8
  %curr = alloca i32, align 4
  %curr28 = alloca i32, align 4
  store ptr %data, ptr %data.addr, align 8
  store ptr %charset, ptr %charset.addr, align 8
  %frombool = zext i1 %include_pad to i8
  store i8 %frombool, ptr %include_pad.addr, align 1
  store ptr %out, ptr %out.addr, align 8
  %0 = load ptr, ptr %data.addr, align 8
  %call = call noundef i64 @_ZNK5folly5RangeIPKcE4sizeEv(ptr noundef nonnull align 8 dereferenceable(16) %0)
  store i64 %call, ptr %len, align 8
  %1 = load i64, ptr %len, align 8
  %cmp = icmp eq i64 %1, 0
  br i1 %cmp, label %if.then, label %if.end

if.then:                                          ; preds = %entry
  br label %if.end64

if.end:                                           ; preds = %entry
  %2 = load ptr, ptr %out.addr, align 8
  store ptr %2, ptr %wp, align 8
  %3 = load ptr, ptr %data.addr, align 8
  %call1 = call noundef ptr @_ZNK5folly5RangeIPKcE5beginEv(ptr noundef nonnull align 8 dereferenceable(16) %3)
  store ptr %call1, ptr %it, align 8
  br label %for.cond

for.cond:                                         ; preds = %for.inc, %if.end
  %4 = load i64, ptr %len, align 8
  %cmp2 = icmp ugt i64 %4, 2
  br i1 %cmp2, label %for.body, label %for.end

for.body:                                         ; preds = %for.cond
  %5 = load ptr, ptr %it, align 8
  %incdec.ptr = getelementptr inbounds i8, ptr %5, i32 1
  store ptr %incdec.ptr, ptr %it, align 8
  %6 = load i8, ptr %5, align 1
  %conv = zext i8 %6 to i32
  %shl = shl i32 %conv, 16
  store i32 %shl, ptr %curr, align 4
  %7 = load ptr, ptr %it, align 8
  %incdec.ptr3 = getelementptr inbounds i8, ptr %7, i32 1
  store ptr %incdec.ptr3, ptr %it, align 8
  %8 = load i8, ptr %7, align 1
  %conv4 = zext i8 %8 to i32
  %shl5 = shl i32 %conv4, 8
  %9 = load i32, ptr %curr, align 4
  %or = or i32 %9, %shl5
  store i32 %or, ptr %curr, align 4
  %10 = load ptr, ptr %it, align 8
  %incdec.ptr6 = getelementptr inbounds i8, ptr %10, i32 1
  store ptr %incdec.ptr6, ptr %it, align 8
  %11 = load i8, ptr %10, align 1
  %conv7 = zext i8 %11 to i32
  %12 = load i32, ptr %curr, align 4
  %or8 = or i32 %12, %conv7
  store i32 %or8, ptr %curr, align 4
  %13 = load ptr, ptr %charset.addr, align 8
  %14 = load i32, ptr %curr, align 4
  %shr = lshr i32 %14, 18
  %and = and i32 %shr, 63
  %conv9 = zext i32 %and to i64
  %call10 = call noundef nonnull align 1 dereferenceable(1) ptr @_ZNKSt5arrayIcLm64EEixEm(ptr noundef nonnull align 1 dereferenceable(64) %13, i64 noundef %conv9) #8
  %15 = load i8, ptr %call10, align 1
  %16 = load ptr, ptr %wp, align 8
  %incdec.ptr11 = getelementptr inbounds i8, ptr %16, i32 1
  store ptr %incdec.ptr11, ptr %wp, align 8
  store i8 %15, ptr %16, align 1
  %17 = load ptr, ptr %charset.addr, align 8
  %18 = load i32, ptr %curr, align 4
  %shr12 = lshr i32 %18, 12
  %and13 = and i32 %shr12, 63
  %conv14 = zext i32 %and13 to i64
  %call15 = call noundef nonnull align 1 dereferenceable(1) ptr @_ZNKSt5arrayIcLm64EEixEm(ptr noundef nonnull align 1 dereferenceable(64) %17, i64 noundef %conv14) #8
  %19 = load i8, ptr %call15, align 1
  %20 = load ptr, ptr %wp, align 8
  %incdec.ptr16 = getelementptr inbounds i8, ptr %20, i32 1
  store ptr %incdec.ptr16, ptr %wp, align 8
  store i8 %19, ptr %20, align 1
  %21 = load ptr, ptr %charset.addr, align 8
  %22 = load i32, ptr %curr, align 4
  %shr17 = lshr i32 %22, 6
  %and18 = and i32 %shr17, 63
  %conv19 = zext i32 %and18 to i64
  %call20 = call noundef nonnull align 1 dereferenceable(1) ptr @_ZNKSt5arrayIcLm64EEixEm(ptr noundef nonnull align 1 dereferenceable(64) %21, i64 noundef %conv19) #8
  %23 = load i8, ptr %call20, align 1
  %24 = load ptr, ptr %wp, align 8
  %incdec.ptr21 = getelementptr inbounds i8, ptr %24, i32 1
  store ptr %incdec.ptr21, ptr %wp, align 8
  store i8 %23, ptr %24, align 1
  %25 = load ptr, ptr %charset.addr, align 8
  %26 = load i32, ptr %curr, align 4
  %and22 = and i32 %26, 63
  %conv23 = zext i32 %and22 to i64
  %call24 = call noundef nonnull align 1 dereferenceable(1) ptr @_ZNKSt5arrayIcLm64EEixEm(ptr noundef nonnull align 1 dereferenceable(64) %25, i64 noundef %conv23) #8
  %27 = load i8, ptr %call24, align 1
  %28 = load ptr, ptr %wp, align 8
  %incdec.ptr25 = getelementptr inbounds i8, ptr %28, i32 1
  store ptr %incdec.ptr25, ptr %wp, align 8
  store i8 %27, ptr %28, align 1
  br label %for.inc

for.inc:                                          ; preds = %for.body
  %29 = load i64, ptr %len, align 8
  %sub = sub i64 %29, 3
  store i64 %sub, ptr %len, align 8
  br label %for.cond, !llvm.loop !4

for.end:                                          ; preds = %for.cond
  %30 = load i64, ptr %len, align 8
  %cmp26 = icmp ugt i64 %30, 0
  br i1 %cmp26, label %if.then27, label %if.end64

if.then27:                                        ; preds = %for.end
  %31 = load ptr, ptr %it, align 8
  %incdec.ptr29 = getelementptr inbounds i8, ptr %31, i32 1
  store ptr %incdec.ptr29, ptr %it, align 8
  %32 = load i8, ptr %31, align 1
  %conv30 = zext i8 %32 to i32
  %shl31 = shl i32 %conv30, 16
  store i32 %shl31, ptr %curr28, align 4
  %33 = load ptr, ptr %charset.addr, align 8
  %34 = load i32, ptr %curr28, align 4
  %shr32 = lshr i32 %34, 18
  %and33 = and i32 %shr32, 63
  %conv34 = zext i32 %and33 to i64
  %call35 = call noundef nonnull align 1 dereferenceable(1) ptr @_ZNKSt5arrayIcLm64EEixEm(ptr noundef nonnull align 1 dereferenceable(64) %33, i64 noundef %conv34) #8
  %35 = load i8, ptr %call35, align 1
  %36 = load ptr, ptr %wp, align 8
  %incdec.ptr36 = getelementptr inbounds i8, ptr %36, i32 1
  store ptr %incdec.ptr36, ptr %wp, align 8
  store i8 %35, ptr %36, align 1
  %37 = load i64, ptr %len, align 8
  %cmp37 = icmp ugt i64 %37, 1
  br i1 %cmp37, label %if.then38, label %if.else

if.then38:                                        ; preds = %if.then27
  %38 = load ptr, ptr %it, align 8
  %39 = load i8, ptr %38, align 1
  %conv39 = zext i8 %39 to i32
  %shl40 = shl i32 %conv39, 8
  %40 = load i32, ptr %curr28, align 4
  %or41 = or i32 %40, %shl40
  store i32 %or41, ptr %curr28, align 4
  %41 = load ptr, ptr %charset.addr, align 8
  %42 = load i32, ptr %curr28, align 4
  %shr42 = lshr i32 %42, 12
  %and43 = and i32 %shr42, 63
  %conv44 = zext i32 %and43 to i64
  %call45 = call noundef nonnull align 1 dereferenceable(1) ptr @_ZNKSt5arrayIcLm64EEixEm(ptr noundef nonnull align 1 dereferenceable(64) %41, i64 noundef %conv44) #8
  %43 = load i8, ptr %call45, align 1
  %44 = load ptr, ptr %wp, align 8
  %incdec.ptr46 = getelementptr inbounds i8, ptr %44, i32 1
  store ptr %incdec.ptr46, ptr %wp, align 8
  store i8 %43, ptr %44, align 1
  %45 = load ptr, ptr %charset.addr, align 8
  %46 = load i32, ptr %curr28, align 4
  %shr47 = lshr i32 %46, 6
  %and48 = and i32 %shr47, 63
  %conv49 = zext i32 %and48 to i64
  %call50 = call noundef nonnull align 1 dereferenceable(1) ptr @_ZNKSt5arrayIcLm64EEixEm(ptr noundef nonnull align 1 dereferenceable(64) %45, i64 noundef %conv49) #8
  %47 = load i8, ptr %call50, align 1
  %48 = load ptr, ptr %wp, align 8
  %incdec.ptr51 = getelementptr inbounds i8, ptr %48, i32 1
  store ptr %incdec.ptr51, ptr %wp, align 8
  store i8 %47, ptr %48, align 1
  %49 = load i8, ptr %include_pad.addr, align 1
  %tobool = trunc i8 %49 to i1
  br i1 %tobool, label %if.then52, label %if.end53

if.then52:                                        ; preds = %if.then38
  %50 = load ptr, ptr %wp, align 8
  store i8 61, ptr %50, align 1
  br label %if.end53

if.end53:                                         ; preds = %if.then52, %if.then38
  br label %if.end63

if.else:                                          ; preds = %if.then27
  %51 = load ptr, ptr %charset.addr, align 8
  %52 = load i32, ptr %curr28, align 4
  %shr54 = lshr i32 %52, 12
  %and55 = and i32 %shr54, 63
  %conv56 = zext i32 %and55 to i64
  %call57 = call noundef nonnull align 1 dereferenceable(1) ptr @_ZNKSt5arrayIcLm64EEixEm(ptr noundef nonnull align 1 dereferenceable(64) %51, i64 noundef %conv56) #8
  %53 = load i8, ptr %call57, align 1
  %54 = load ptr, ptr %wp, align 8
  %incdec.ptr58 = getelementptr inbounds i8, ptr %54, i32 1
  store ptr %incdec.ptr58, ptr %wp, align 8
  store i8 %53, ptr %54, align 1
  %55 = load i8, ptr %include_pad.addr, align 1
  %tobool59 = trunc i8 %55 to i1
  br i1 %tobool59, label %if.then60, label %if.end62

if.then60:                                        ; preds = %if.else
  %56 = load ptr, ptr %wp, align 8
  %incdec.ptr61 = getelementptr inbounds i8, ptr %56, i32 1
  store ptr %incdec.ptr61, ptr %wp, align 8
  store i8 61, ptr %56, align 1
  %57 = load ptr, ptr %wp, align 8
  store i8 61, ptr %57, align 1
  br label %if.end62

if.end62:                                         ; preds = %if.then60, %if.else
  br label %if.end63

if.end63:                                         ; preds = %if.end62, %if.end53
  br label %if.end64

if.end64:                                         ; preds = %if.end63, %for.end, %if.then
  ret void
}

; Function Attrs: mustprogress nounwind uwtable
define linkonce_odr void @_ZN5folly5RangeIPKcEC2ES2_m(ptr noundef nonnull align 8 dereferenceable(16) %this, ptr noundef %start, i64 noundef %size) unnamed_addr #0 comdat align 2 {
entry:
  %this.addr = alloca ptr, align 8
  %start.addr = alloca ptr, align 8
  %size.addr = alloca i64, align 8
  store ptr %this, ptr %this.addr, align 8
  store ptr %start, ptr %start.addr, align 8
  store i64 %size, ptr %size.addr, align 8
  %this1 = load ptr, ptr %this.addr, align 8
  %b_ = getelementptr inbounds %"class.folly::Range", ptr %this1, i32 0, i32 0
  %0 = load ptr, ptr %start.addr, align 8
  store ptr %0, ptr %b_, align 8
  %e_ = getelementptr inbounds %"class.folly::Range", ptr %this1, i32 0, i32 1
  %1 = load ptr, ptr %start.addr, align 8
  %2 = load i64, ptr %size.addr, align 8
  %add.ptr = getelementptr inbounds i8, ptr %1, i64 %2
  store ptr %add.ptr, ptr %e_, align 8
  ret void
}

; Function Attrs: mustprogress uwtable
define void @_ZN8facebook5velox8encoding6Base646encodeEPKcmPc(ptr noundef %data, i64 noundef %len, ptr noundef %output) #1 align 2 {
entry:
  %data.addr = alloca ptr, align 8
  %len.addr = alloca i64, align 8
  %output.addr = alloca ptr, align 8
  %ref.tmp = alloca %"class.folly::Range", align 8
  store ptr %data, ptr %data.addr, align 8
  store i64 %len, ptr %len.addr, align 8
  store ptr %output, ptr %output.addr, align 8
  %0 = load ptr, ptr %data.addr, align 8
  %1 = load i64, ptr %len.addr, align 8
  call void @_ZN5folly5RangeIPKcEC2ES2_m(ptr noundef nonnull align 8 dereferenceable(16) %ref.tmp, ptr noundef %0, i64 noundef %1)
  %2 = load ptr, ptr %output.addr, align 8
  call void @_ZN8facebook5velox8encoding6Base6410encodeImplIN5folly5RangeIPKcEEEEvRKT_RKSt5arrayIcLm64EEbPc(ptr noundef nonnull align 8 dereferenceable(16) %ref.tmp, ptr noundef nonnull align 1 dereferenceable(64) @_ZN8facebook5velox8encodingL14kBase64CharsetE, i1 noundef zeroext true, ptr noundef %2)
  ret void
}