; Function Attrs: mustprogress nofree norecurse nosync nounwind memory(readwrite, inaccessiblemem: none) uwtable
define void @_ZN8facebook5velox8encoding6Base646encodeEPKcmPc(ptr nocapture noundef readonly %data, i64 noundef %len, ptr nocapture noundef writeonly %output) local_unnamed_addr #1 align 2 {
entry:
  %cmp.i = icmp eq i64 %len, 0
  br i1 %cmp.i, label %_ZN8facebook5velox8encoding6Base6410encodeImplIN5folly5RangeIPKcEEEEvRKT_RKSt5arrayIcLm64EEbPc.exit, label %for.cond.preheader.i

for.cond.preheader.i:                             ; preds = %entry
  %cmp244.i = icmp ugt i64 %len, 2
  br i1 %cmp244.i, label %for.body.i, label %if.then27.i

for.body.i:                                       ; preds = %for.cond.preheader.i, %for.body.i
  %len.047.i = phi i64 [ %sub.i, %for.body.i ], [ %len, %for.cond.preheader.i ]
  %it.046.i = phi ptr [ %incdec.ptr6.i, %for.body.i ], [ %data, %for.cond.preheader.i ]
  %wp.045.i = phi ptr [ %incdec.ptr25.i, %for.body.i ], [ %output, %for.cond.preheader.i ]
  %incdec.ptr.i = getelementptr inbounds i8, ptr %it.046.i, i64 1
  %0 = load i8, ptr %it.046.i, align 1
  %conv.i = zext i8 %0 to i32
  %shl.i = shl nuw nsw i32 %conv.i, 16
  %incdec.ptr3.i = getelementptr inbounds i8, ptr %it.046.i, i64 2
  %1 = load i8, ptr %incdec.ptr.i, align 1
  %conv4.i = zext i8 %1 to i32
  %shl5.i = shl nuw nsw i32 %conv4.i, 8
  %incdec.ptr6.i = getelementptr inbounds i8, ptr %it.046.i, i64 3
  %2 = load i8, ptr %incdec.ptr3.i, align 1
  %conv7.i = zext i8 %2 to i32
  %3 = or disjoint i32 %shl5.i, %conv7.i
  %or8.i = or disjoint i32 %shl5.i, %shl.i
  %shr.i = lshr i32 %conv.i, 2
  %conv9.i = zext nneg i32 %shr.i to i64
  %arrayidx.i.i.i = getelementptr inbounds [64 x i8], ptr @_ZN8facebook5velox8encodingL14kBase64CharsetE, i64 0, i64 %conv9.i
  %4 = load i8, ptr %arrayidx.i.i.i, align 1
  %incdec.ptr11.i = getelementptr inbounds i8, ptr %wp.045.i, i64 1
  store i8 %4, ptr %wp.045.i, align 1
  %shr12.i = lshr i32 %or8.i, 12
  %and13.i = and i32 %shr12.i, 63
  %conv14.i = zext nneg i32 %and13.i to i64
  %arrayidx.i.i37.i = getelementptr inbounds [64 x i8], ptr @_ZN8facebook5velox8encodingL14kBase64CharsetE, i64 0, i64 %conv14.i
  %5 = load i8, ptr %arrayidx.i.i37.i, align 1
  %incdec.ptr16.i = getelementptr inbounds i8, ptr %wp.045.i, i64 2
  store i8 %5, ptr %incdec.ptr11.i, align 1
  %shr17.i = lshr i32 %3, 6
  %and18.i = and i32 %shr17.i, 63
  %conv19.i = zext nneg i32 %and18.i to i64
  %arrayidx.i.i38.i = getelementptr inbounds [64 x i8], ptr @_ZN8facebook5velox8encodingL14kBase64CharsetE, i64 0, i64 %conv19.i
  %6 = load i8, ptr %arrayidx.i.i38.i, align 1
  %incdec.ptr21.i = getelementptr inbounds i8, ptr %wp.045.i, i64 3
  store i8 %6, ptr %incdec.ptr16.i, align 1
  %and22.i = and i32 %conv7.i, 63
  %conv23.i = zext nneg i32 %and22.i to i64
  %arrayidx.i.i39.i = getelementptr inbounds [64 x i8], ptr @_ZN8facebook5velox8encodingL14kBase64CharsetE, i64 0, i64 %conv23.i
  %7 = load i8, ptr %arrayidx.i.i39.i, align 1
  %incdec.ptr25.i = getelementptr inbounds i8, ptr %wp.045.i, i64 4
  store i8 %7, ptr %incdec.ptr21.i, align 1
  %sub.i = add i64 %len.047.i, -3
  %cmp2.i = icmp ugt i64 %sub.i, 2
  br i1 %cmp2.i, label %for.body.i, label %for.end.i, !llvm.loop !4

for.end.i:                                        ; preds = %for.body.i
  %cmp26.not.i = icmp eq i64 %sub.i, 0
  br i1 %cmp26.not.i, label %_ZN8facebook5velox8encoding6Base6410encodeImplIN5folly5RangeIPKcEEEEvRKT_RKSt5arrayIcLm64EEbPc.exit, label %if.then27.i

if.then27.i:                                      ; preds = %for.end.i, %for.cond.preheader.i
  %len.0.lcssa56.i = phi i64 [ %sub.i, %for.end.i ], [ %len, %for.cond.preheader.i ]
  %it.0.lcssa55.i = phi ptr [ %incdec.ptr6.i, %for.end.i ], [ %data, %for.cond.preheader.i ]
  %wp.0.lcssa54.i = phi ptr [ %incdec.ptr25.i, %for.end.i ], [ %output, %for.cond.preheader.i ]
  %8 = load i8, ptr %it.0.lcssa55.i, align 1
  %conv30.i = zext i8 %8 to i32
  %shr32.i = lshr i32 %conv30.i, 2
  %conv34.i = zext nneg i32 %shr32.i to i64
  %arrayidx.i.i40.i = getelementptr inbounds [64 x i8], ptr @_ZN8facebook5velox8encodingL14kBase64CharsetE, i64 0, i64 %conv34.i
  %9 = load i8, ptr %arrayidx.i.i40.i, align 1
  %incdec.ptr36.i = getelementptr inbounds i8, ptr %wp.0.lcssa54.i, i64 1
  store i8 %9, ptr %wp.0.lcssa54.i, align 1
  %cmp37.i = icmp eq i64 %len.0.lcssa56.i, 2
  br i1 %cmp37.i, label %if.then38.i, label %if.else.i

if.then38.i:                                      ; preds = %if.then27.i
  %shl31.i = shl nuw nsw i32 %conv30.i, 16
  %incdec.ptr29.i = getelementptr inbounds i8, ptr %it.0.lcssa55.i, i64 1
  %10 = load i8, ptr %incdec.ptr29.i, align 1
  %conv39.i = zext i8 %10 to i32
  %shl40.i = shl nuw nsw i32 %conv39.i, 8
  %or41.i = or disjoint i32 %shl40.i, %shl31.i
  %shr42.i = lshr i32 %or41.i, 12
  %and43.i = and i32 %shr42.i, 63
  %conv44.i = zext nneg i32 %and43.i to i64
  %arrayidx.i.i41.i = getelementptr inbounds [64 x i8], ptr @_ZN8facebook5velox8encodingL14kBase64CharsetE, i64 0, i64 %conv44.i
  %11 = load i8, ptr %arrayidx.i.i41.i, align 1
  store i8 %11, ptr %incdec.ptr36.i, align 1
  %shr47.i = shl nuw nsw i32 %conv39.i, 2
  %and48.i = and i32 %shr47.i, 60
  %conv49.i = zext nneg i32 %and48.i to i64
  %arrayidx.i.i42.i = getelementptr inbounds [64 x i8], ptr @_ZN8facebook5velox8encodingL14kBase64CharsetE, i64 0, i64 %conv49.i
  %12 = load i8, ptr %arrayidx.i.i42.i, align 1
  br label %if.end64.sink.split.i

if.else.i:                                        ; preds = %if.then27.i
  %shr54.i = shl nuw nsw i32 %conv30.i, 4
  %and55.i = and i32 %shr54.i, 48
  %conv56.i = zext nneg i32 %and55.i to i64
  %arrayidx.i.i43.i = getelementptr inbounds [64 x i8], ptr @_ZN8facebook5velox8encodingL14kBase64CharsetE, i64 0, i64 %conv56.i
  %13 = load i8, ptr %arrayidx.i.i43.i, align 1
  store i8 %13, ptr %incdec.ptr36.i, align 1
  br label %if.end64.sink.split.i

if.end64.sink.split.i:                            ; preds = %if.else.i, %if.then38.i
  %.sink = phi i8 [ %12, %if.then38.i ], [ 61, %if.else.i ]
  %14 = getelementptr inbounds i8, ptr %wp.0.lcssa54.i, i64 2
  store i8 %.sink, ptr %14, align 1
  %incdec.ptr51.sink.i = getelementptr inbounds i8, ptr %wp.0.lcssa54.i, i64 3
  store i8 61, ptr %incdec.ptr51.sink.i, align 1
  br label %_ZN8facebook5velox8encoding6Base6410encodeImplIN5folly5RangeIPKcEEEEvRKT_RKSt5arrayIcLm64EEbPc.exit

_ZN8facebook5velox8encoding6Base6410encodeImplIN5folly5RangeIPKcEEEEvRKT_RKSt5arrayIcLm64EEbPc.exit: ; preds = %entry, %for.end.i, %if.end64.sink.split.i
  ret void
}